target datalayout = "e-m:e-p270:32:32-p271:32:32-p272:64:64-i64:64-i128:128-f80:128-n8:16:32:64-S128"
target triple = "x86_64-pc-linux-gnu"

%"class.boost::detail::signal_action" = type { i32, i8, %struct.sigaction, %struct.sigaction }
%struct.sigaction = type { %union.anon.8, %struct.__sigset_t, i32, ptr }
%union.anon.8 = type { ptr }
%struct.__sigset_t = type { [16 x i64] }
%"class.boost::system_error" = type { i64, ptr }

@.str.38 = private unnamed_addr constant [4 x i8] c"exp\00", align 1
@_ZN5boost12system_errorC1EPKc = hidden unnamed_addr alias void (ptr, ptr), ptr @_ZN5boost12system_errorC2EPKc

; Function Attrs: mustprogress uwtable
define hidden void @_ZN5boost6detail13signal_actionC2EibbPc(ptr noundef nonnull align 8 dereferenceable(312) %0, i32 noundef %1, i1 noundef zeroext %2, i1 noundef zeroext %3, ptr noundef %4) unnamed_addr #4 align 2 {
  %6 = alloca ptr, align 8
  %7 = alloca i32, align 4
  %8 = alloca i8, align 1
  %9 = alloca i8, align 1
  %10 = alloca ptr, align 8
  %11 = alloca %"class.boost::system_error", align 8
  %12 = alloca %"class.boost::system_error", align 8
  %13 = alloca %"class.boost::system_error", align 8
  store ptr %0, ptr %6, align 8, !tbaa !3
  store i32 %1, ptr %7, align 4, !tbaa !21
  %14 = zext i1 %2 to i8
  store i8 %14, ptr %8, align 1, !tbaa !22
  %15 = zext i1 %3 to i8
  store i8 %15, ptr %9, align 1, !tbaa !22
  store ptr %4, ptr %10, align 8, !tbaa !3
  %16 = load ptr, ptr %6, align 8
  %17 = getelementptr inbounds nuw %"class.boost::detail::signal_action", ptr %16, i32 0, i32 0
  %18 = load i32, ptr %7, align 4, !tbaa !21
  store i32 %18, ptr %17, align 8, !tbaa !23
  %19 = getelementptr inbounds nuw %"class.boost::detail::signal_action", ptr %16, i32 0, i32 1
  %20 = load i8, ptr %8, align 1, !tbaa !22, !range !24, !noundef !25
  %21 = trunc i8 %20 to i1
  %22 = zext i1 %21 to i8
  store i8 %22, ptr %19, align 4, !tbaa !16
  %23 = load i8, ptr %8, align 1, !tbaa !22, !range !24, !noundef !25
  %24 = trunc i8 %23 to i1
  br i1 %24, label %26, label %25

25:                                               ; preds = %5
  br label %80

26:                                               ; preds = %5
  %27 = getelementptr inbounds nuw %"class.boost::detail::signal_action", ptr %16, i32 0, i32 2
  call void @llvm.memset.p0.i64(ptr align 8 %27, i8 0, i64 152, i1 false)
  %28 = getelementptr inbounds nuw %"class.boost::detail::signal_action", ptr %16, i32 0, i32 0
  %29 = load i32, ptr %28, align 8, !tbaa !23
  %30 = getelementptr inbounds nuw %"class.boost::detail::signal_action", ptr %16, i32 0, i32 2
  %31 = call i32 @sigaction(i32 noundef %29, ptr noundef null, ptr noundef %30) #3
  %32 = icmp ne i32 %31, -1
  br i1 %32, label %33, label %34

33:                                               ; preds = %26
  br label %35

34:                                               ; preds = %26
  call void @llvm.lifetime.start.p0(i64 16, ptr %11) #3
  call void @_ZN5boost12system_errorC1EPKc(ptr noundef nonnull align 8 dereferenceable(16) %11, ptr noundef @.str.38)
  call void @_ZN5boost9unit_test9ut_detail15throw_exceptionINS_12system_errorEEEvRKT_(ptr noundef nonnull align 8 dereferenceable(16) %11) #29
  unreachable

35:                                               ; preds = %33
  %36 = getelementptr inbounds nuw %"class.boost::detail::signal_action", ptr %16, i32 0, i32 2
  %37 = getelementptr inbounds nuw %struct.sigaction, ptr %36, i32 0, i32 0
  %38 = load ptr, ptr %37, align 8, !tbaa !12
  %39 = icmp ne ptr %38, null
  br i1 %39, label %45, label %40

40:                                               ; preds = %35
  %41 = getelementptr inbounds nuw %"class.boost::detail::signal_action", ptr %16, i32 0, i32 2
  %42 = getelementptr inbounds nuw %struct.sigaction, ptr %41, i32 0, i32 0
  %43 = load ptr, ptr %42, align 8, !tbaa !12
  %44 = icmp ne ptr %43, null
  br i1 %44, label %45, label %47

45:                                               ; preds = %40, %35
  %46 = getelementptr inbounds nuw %"class.boost::detail::signal_action", ptr %16, i32 0, i32 1
  store i8 0, ptr %46, align 4, !tbaa !16
  br label %80

47:                                               ; preds = %40
  %48 = getelementptr inbounds nuw %"class.boost::detail::signal_action", ptr %16, i32 0, i32 2
  %49 = getelementptr inbounds nuw %struct.sigaction, ptr %48, i32 0, i32 2
  %50 = load i32, ptr %49, align 8, !tbaa !26
  %51 = or i32 %50, 4
  store i32 %51, ptr %49, align 8, !tbaa !26
  %52 = load i8, ptr %9, align 1, !tbaa !22, !range !24, !noundef !25
  %53 = trunc i8 %52 to i1
  %54 = select i1 %53, ptr @_ZN5boost6detailL48boost_execution_monitor_attaching_signal_handlerEiP9siginfo_tPv, ptr @_ZN5boost6detailL46boost_execution_monitor_jumping_signal_handlerEiP9siginfo_tPv
  %55 = getelementptr inbounds nuw %"class.boost::detail::signal_action", ptr %16, i32 0, i32 2
  %56 = getelementptr inbounds nuw %struct.sigaction, ptr %55, i32 0, i32 0
  store ptr %54, ptr %56, align 8, !tbaa !12
  %57 = getelementptr inbounds nuw %"class.boost::detail::signal_action", ptr %16, i32 0, i32 2
  %58 = getelementptr inbounds nuw %struct.sigaction, ptr %57, i32 0, i32 1
  %59 = call i32 @sigemptyset(ptr noundef %58) #3
  %60 = icmp ne i32 %59, -1
  br i1 %60, label %61, label %62

61:                                               ; preds = %47
  br label %63

62:                                               ; preds = %47
  call void @llvm.lifetime.start.p0(i64 16, ptr %12) #3
  call void @_ZN5boost12system_errorC1EPKc(ptr noundef nonnull align 8 dereferenceable(16) %12, ptr noundef @.str.38)
  call void @_ZN5boost9unit_test9ut_detail15throw_exceptionINS_12system_errorEEEvRKT_(ptr noundef nonnull align 8 dereferenceable(16) %12) #29
  unreachable

63:                                               ; preds = %61
  %64 = load ptr, ptr %10, align 8, !tbaa !3
  %65 = icmp ne ptr %64, null
  br i1 %65, label %66, label %71

66:                                               ; preds = %63
  %67 = getelementptr inbounds nuw %"class.boost::detail::signal_action", ptr %16, i32 0, i32 2
  %68 = getelementptr inbounds nuw %struct.sigaction, ptr %67, i32 0, i32 2
  %69 = load i32, ptr %68, align 8, !tbaa !26
  %70 = or i32 %69, 134217728
  store i32 %70, ptr %68, align 8, !tbaa !26
  br label %71

71:                                               ; preds = %66, %63
  %72 = getelementptr inbounds nuw %"class.boost::detail::signal_action", ptr %16, i32 0, i32 0
  %73 = load i32, ptr %72, align 8, !tbaa !23
  %74 = getelementptr inbounds nuw %"class.boost::detail::signal_action", ptr %16, i32 0, i32 2
  %75 = getelementptr inbounds nuw %"class.boost::detail::signal_action", ptr %16, i32 0, i32 3
  %76 = call i32 @sigaction(i32 noundef %73, ptr noundef %74, ptr noundef %75) #3
  %77 = icmp ne i32 %76, -1
  br i1 %77, label %78, label %79

78:                                               ; preds = %71
  br label %80

79:                                               ; preds = %71
  call void @llvm.lifetime.start.p0(i64 16, ptr %13) #3
  call void @_ZN5boost12system_errorC1EPKc(ptr noundef nonnull align 8 dereferenceable(16) %13, ptr noundef @.str.38)
  call void @_ZN5boost9unit_test9ut_detail15throw_exceptionINS_12system_errorEEEvRKT_(ptr noundef nonnull align 8 dereferenceable(16) %13) #29
  unreachable

80:                                               ; preds = %25, %45, %78
  ret void
}