; Function Attrs: mustprogress uwtable
define hidden void @_ZN5boost6detail13signal_actionC2EibbPc(ptr noundef nonnull align 8 dereferenceable(312) %0, i32 noundef %1, i1 noundef zeroext %2, i1 noundef zeroext %3, ptr noundef readnone %4) unnamed_addr #3 align 2 {
  %6 = alloca %"class.boost::system_error", align 8
  %7 = alloca %"class.boost::system_error", align 8
  %8 = alloca %"class.boost::system_error", align 8
  %9 = zext i1 %2 to i8
  store i32 %1, ptr %0, align 8, !tbaa !23
  %10 = getelementptr inbounds nuw i8, ptr %0, i64 4
  store i8 %9, ptr %10, align 4, !tbaa !18
  br i1 %2, label %11, label %47

11:                                               ; preds = %5
  %12 = getelementptr inbounds nuw i8, ptr %0, i64 8
  tail call void @llvm.memset.p0.i64(ptr noundef nonnull align 8 dereferenceable(152) %12, i8 0, i64 152, i1 false)
  %13 = tail call i32 @sigaction(i32 noundef %1, ptr noundef null, ptr noundef nonnull %12) #41
  %.not = icmp eq i32 %13, -1
  br i1 %.not, label %14, label %19

14:                                               ; preds = %11
  call void @llvm.lifetime.start.p0(i64 16, ptr nonnull %6) #41
  %15 = tail call ptr @__errno_location() #43
  %16 = load i32, ptr %15, align 4, !tbaa !24
  %17 = sext i32 %16 to i64
  store i64 %17, ptr %6, align 8, !tbaa !25
  %18 = getelementptr inbounds nuw i8, ptr %6, i64 8
  store ptr @.str.38, ptr %18, align 8, !tbaa !28
  call void @_ZN5boost9unit_test9ut_detail15throw_exceptionINS_12system_errorEEEvRKT_(ptr noundef nonnull align 8 dereferenceable(16) %6) #42
  unreachable

19:                                               ; preds = %11
  %20 = load ptr, ptr %12, align 8, !tbaa !11
  %.not5 = icmp eq ptr %20, null
  br i1 %.not5, label %22, label %21

21:                                               ; preds = %19
  store i8 0, ptr %10, align 4, !tbaa !18
  br label %47

22:                                               ; preds = %19
  %23 = getelementptr inbounds nuw i8, ptr %0, i64 144
  %24 = load i32, ptr %23, align 8, !tbaa !29
  %25 = or i32 %24, 4
  store i32 %25, ptr %23, align 8, !tbaa !29
  %26 = select i1 %3, ptr @_ZN5boost6detailL48boost_execution_monitor_attaching_signal_handlerEiP9siginfo_tPv, ptr @_ZN5boost6detailL46boost_execution_monitor_jumping_signal_handlerEiP9siginfo_tPv
  store ptr %26, ptr %12, align 8, !tbaa !11
  %27 = getelementptr inbounds nuw i8, ptr %0, i64 16
  %28 = tail call i32 @sigemptyset(ptr noundef nonnull %27) #41
  %.not6 = icmp eq i32 %28, -1
  br i1 %.not6, label %29, label %34

29:                                               ; preds = %22
  call void @llvm.lifetime.start.p0(i64 16, ptr nonnull %7) #41
  %30 = tail call ptr @__errno_location() #43
  %31 = load i32, ptr %30, align 4, !tbaa !24
  %32 = sext i32 %31 to i64
  store i64 %32, ptr %7, align 8, !tbaa !25
  %33 = getelementptr inbounds nuw i8, ptr %7, i64 8
  store ptr @.str.38, ptr %33, align 8, !tbaa !28
  call void @_ZN5boost9unit_test9ut_detail15throw_exceptionINS_12system_errorEEEvRKT_(ptr noundef nonnull align 8 dereferenceable(16) %7) #42
  unreachable

34:                                               ; preds = %22
  %.not7 = icmp eq ptr %4, null
  br i1 %.not7, label %38, label %35

35:                                               ; preds = %34
  %36 = load i32, ptr %23, align 8, !tbaa !29
  %37 = or i32 %36, 134217728
  store i32 %37, ptr %23, align 8, !tbaa !29
  br label %38

38:                                               ; preds = %35, %34
  %39 = load i32, ptr %0, align 8, !tbaa !23
  %40 = getelementptr inbounds nuw i8, ptr %0, i64 160
  %41 = tail call i32 @sigaction(i32 noundef %39, ptr noundef nonnull %12, ptr noundef nonnull %40) #41
  %.not8 = icmp eq i32 %41, -1
  br i1 %.not8, label %42, label %47

42:                                               ; preds = %38
  call void @llvm.lifetime.start.p0(i64 16, ptr nonnull %8) #41
  %43 = tail call ptr @__errno_location() #43
  %44 = load i32, ptr %43, align 4, !tbaa !24
  %45 = sext i32 %44 to i64
  store i64 %45, ptr %8, align 8, !tbaa !25
  %46 = getelementptr inbounds nuw i8, ptr %8, i64 8
  store ptr @.str.38, ptr %46, align 8, !tbaa !28
  call void @_ZN5boost9unit_test9ut_detail15throw_exceptionINS_12system_errorEEEvRKT_(ptr noundef nonnull align 8 dereferenceable(16) %8) #42
  unreachable

47:                                               ; preds = %38, %5, %21
  ret void
}